target datalayout = "e-m:e-p270:32:32-p271:32:32-p272:64:64-i64:64-i128:128-f80:128-n8:16:32:64-S128"
target triple = "x86_64-pc-linux-gnu"

; Function Attrs: nounwind uwtable
define internal i32 @pg_mule_dsplen(ptr noundef %0) #1 {
  %2 = alloca ptr, align 8
  %3 = alloca i32, align 4
  store ptr %0, ptr %2, align 8
  call void @llvm.lifetime.start.p0(i64 4, ptr %3) #7
  %4 = load ptr, ptr %2, align 8
  %5 = load i8, ptr %4, align 1
  %6 = zext i8 %5 to i32
  %7 = icmp sge i32 %6, 129
  br i1 %7, label %8, label %14

8:                                                ; preds = %1
  %9 = load ptr, ptr %2, align 8
  %10 = load i8, ptr %9, align 1
  %11 = zext i8 %10 to i32
  %12 = icmp sle i32 %11, 141
  br i1 %12, label %13, label %14

13:                                               ; preds = %8
  store i32 1, ptr %3, align 4
  br label %51

14:                                               ; preds = %8, %1
  %15 = load ptr, ptr %2, align 8
  %16 = load i8, ptr %15, align 1
  %17 = zext i8 %16 to i32
  %18 = icmp eq i32 %17, 154
  br i1 %18, label %24, label %19

19:                                               ; preds = %14
  %20 = load ptr, ptr %2, align 8
  %21 = load i8, ptr %20, align 1
  %22 = zext i8 %21 to i32
  %23 = icmp eq i32 %22, 155
  br i1 %23, label %24, label %25

24:                                               ; preds = %19, %14
  store i32 1, ptr %3, align 4
  br label %50

25:                                               ; preds = %19
  %26 = load ptr, ptr %2, align 8
  %27 = load i8, ptr %26, align 1
  %28 = zext i8 %27 to i32
  %29 = icmp sge i32 %28, 144
  br i1 %29, label %30, label %36

30:                                               ; preds = %25
  %31 = load ptr, ptr %2, align 8
  %32 = load i8, ptr %31, align 1
  %33 = zext i8 %32 to i32
  %34 = icmp sle i32 %33, 153
  br i1 %34, label %35, label %36

35:                                               ; preds = %30
  store i32 2, ptr %3, align 4
  br label %49

36:                                               ; preds = %30, %25
  %37 = load ptr, ptr %2, align 8
  %38 = load i8, ptr %37, align 1
  %39 = zext i8 %38 to i32
  %40 = icmp eq i32 %39, 156
  br i1 %40, label %46, label %41

41:                                               ; preds = %36
  %42 = load ptr, ptr %2, align 8
  %43 = load i8, ptr %42, align 1
  %44 = zext i8 %43 to i32
  %45 = icmp eq i32 %44, 157
  br i1 %45, label %46, label %47

46:                                               ; preds = %41, %36
  store i32 2, ptr %3, align 4
  br label %48

47:                                               ; preds = %41
  store i32 1, ptr %3, align 4
  br label %48

48:                                               ; preds = %47, %46
  br label %49

49:                                               ; preds = %48, %35
  br label %50

50:                                               ; preds = %49, %24
  br label %51

51:                                               ; preds = %50, %13
  %52 = load i32, ptr %3, align 4
  call void @llvm.lifetime.end.p0(i64 4, ptr %3) #7
  ret i32 %52
}