; Function Attrs: mustprogress nofree norecurse nosync nounwind willreturn memory(argmem: read) uwtable
define internal range(i32 1, 3) i32 @pg_mule_dsplen(ptr noundef readonly captures(none) %0) #0 {
  %2 = load i8, ptr %0, align 1
  %3 = add i8 %2, 127
  %or.cond = icmp ult i8 %3, 13
  %4 = and i8 %2, -2
  %switch = icmp eq i8 %4, -102
  %or.cond14 = or i1 %or.cond, %switch
  br i1 %or.cond14, label %8, label %5

5:                                                ; preds = %1
  %6 = add i8 %2, 112
  %or.cond11 = icmp ult i8 %6, 10
  br i1 %or.cond11, label %8, label %7

7:                                                ; preds = %5
  %switch13 = icmp eq i8 %4, -100
  %spec.select = select i1 %switch13, i32 2, i32 1
  br label %8

8:                                                ; preds = %7, %5, %1
  %.0 = phi i32 [ 1, %1 ], [ 2, %5 ], [ %spec.select, %7 ]
  ret i32 %.0
}